target datalayout = "e-m:e-p270:32:32-p271:32:32-p272:64:64-i64:64-i128:128-f80:128-n8:16:32:64-S128"
target triple = "x86_64-pc-linux-gnu"

; Function Attrs: nounwind uwtable
define internal void @quantize(ptr noundef %0, ptr noundef %1, ptr noundef %2) #0 {
  %4 = alloca ptr, align 8
  %5 = alloca ptr, align 8
  %6 = alloca ptr, align 8
  %7 = alloca i32, align 4
  %8 = alloca i16, align 2
  %9 = alloca ptr, align 8
  %10 = alloca i16, align 2
  %11 = alloca i16, align 2
  %12 = alloca i32, align 4
  %13 = alloca i32, align 4
  store ptr %0, ptr %4, align 8, !tbaa !54
  store ptr %1, ptr %5, align 8, !tbaa !54
  store ptr %2, ptr %6, align 8, !tbaa !54
  call void @llvm.lifetime.start.p0(i64 4, ptr %7) #3
  call void @llvm.lifetime.start.p0(i64 2, ptr %8) #3
  call void @llvm.lifetime.start.p0(i64 8, ptr %9) #3
  %14 = load ptr, ptr %4, align 8, !tbaa !54
  store ptr %14, ptr %9, align 8, !tbaa !54
  call void @llvm.lifetime.start.p0(i64 2, ptr %10) #3
  call void @llvm.lifetime.start.p0(i64 2, ptr %11) #3
  call void @llvm.lifetime.start.p0(i64 4, ptr %12) #3
  call void @llvm.lifetime.start.p0(i64 4, ptr %13) #3
  store i32 0, ptr %7, align 4, !tbaa !53
  br label %15

15:                                               ; preds = %94, %3
  %16 = load i32, ptr %7, align 4, !tbaa !53
  %17 = icmp slt i32 %16, 64
  br i1 %17, label %18, label %97

18:                                               ; preds = %15
  %19 = load ptr, ptr %6, align 8, !tbaa !54
  %20 = load i32, ptr %7, align 4, !tbaa !53
  %21 = sext i32 %20 to i64
  %22 = getelementptr inbounds i16, ptr %19, i64 %21
  %23 = load i16, ptr %22, align 2, !tbaa !62
  store i16 %23, ptr %8, align 2, !tbaa !62
  %24 = load ptr, ptr %5, align 8, !tbaa !54
  %25 = load i32, ptr %7, align 4, !tbaa !53
  %26 = add nsw i32 %25, 0
  %27 = sext i32 %26 to i64
  %28 = getelementptr inbounds i16, ptr %24, i64 %27
  %29 = load i16, ptr %28, align 2, !tbaa !62
  store i16 %29, ptr %10, align 2, !tbaa !62
  %30 = load ptr, ptr %5, align 8, !tbaa !54
  %31 = load i32, ptr %7, align 4, !tbaa !53
  %32 = add nsw i32 %31, 64
  %33 = sext i32 %32 to i64
  %34 = getelementptr inbounds i16, ptr %30, i64 %33
  %35 = load i16, ptr %34, align 2, !tbaa !62
  store i16 %35, ptr %11, align 2, !tbaa !62
  %36 = load ptr, ptr %5, align 8, !tbaa !54
  %37 = load i32, ptr %7, align 4, !tbaa !53
  %38 = add nsw i32 %37, 192
  %39 = sext i32 %38 to i64
  %40 = getelementptr inbounds i16, ptr %36, i64 %39
  %41 = load i16, ptr %40, align 2, !tbaa !62
  %42 = sext i16 %41 to i32
  store i32 %42, ptr %12, align 4, !tbaa !53
  %43 = load i16, ptr %8, align 2, !tbaa !62
  %44 = sext i16 %43 to i32
  %45 = icmp slt i32 %44, 0
  br i1 %45, label %46, label %71

46:                                               ; preds = %18
  %47 = load i16, ptr %8, align 2, !tbaa !62
  %48 = sext i16 %47 to i32
  %49 = sub nsw i32 0, %48
  %50 = trunc i32 %49 to i16
  store i16 %50, ptr %8, align 2, !tbaa !62
  %51 = load i16, ptr %8, align 2, !tbaa !62
  %52 = sext i16 %51 to i32
  %53 = load i16, ptr %11, align 2, !tbaa !62
  %54 = zext i16 %53 to i32
  %55 = add nsw i32 %52, %54
  %56 = load i16, ptr %10, align 2, !tbaa !62
  %57 = zext i16 %56 to i32
  %58 = mul i32 %55, %57
  store i32 %58, ptr %13, align 4, !tbaa !53
  %59 = load i32, ptr %12, align 4, !tbaa !53
  %60 = sext i32 %59 to i64
  %61 = add i64 %60, 16
  %62 = load i32, ptr %13, align 4, !tbaa !53
  %63 = trunc i64 %61 to i32
  %64 = lshr i32 %62, %63
  store i32 %64, ptr %13, align 4, !tbaa !53
  %65 = load i32, ptr %13, align 4, !tbaa !53
  %66 = trunc i32 %65 to i16
  store i16 %66, ptr %8, align 2, !tbaa !62
  %67 = load i16, ptr %8, align 2, !tbaa !62
  %68 = sext i16 %67 to i32
  %69 = sub nsw i32 0, %68
  %70 = trunc i32 %69 to i16
  store i16 %70, ptr %8, align 2, !tbaa !62
  br label %88

71:                                               ; preds = %18
  %72 = load i16, ptr %8, align 2, !tbaa !62
  %73 = sext i16 %72 to i32
  %74 = load i16, ptr %11, align 2, !tbaa !62
  %75 = zext i16 %74 to i32
  %76 = add nsw i32 %73, %75
  %77 = load i16, ptr %10, align 2, !tbaa !62
  %78 = zext i16 %77 to i32
  %79 = mul i32 %76, %78
  store i32 %79, ptr %13, align 4, !tbaa !53
  %80 = load i32, ptr %12, align 4, !tbaa !53
  %81 = sext i32 %80 to i64
  %82 = add i64 %81, 16
  %83 = load i32, ptr %13, align 4, !tbaa !53
  %84 = trunc i64 %82 to i32
  %85 = lshr i32 %83, %84
  store i32 %85, ptr %13, align 4, !tbaa !53
  %86 = load i32, ptr %13, align 4, !tbaa !53
  %87 = trunc i32 %86 to i16
  store i16 %87, ptr %8, align 2, !tbaa !62
  br label %88

88:                                               ; preds = %71, %46
  %89 = load i16, ptr %8, align 2, !tbaa !62
  %90 = load ptr, ptr %9, align 8, !tbaa !54
  %91 = load i32, ptr %7, align 4, !tbaa !53
  %92 = sext i32 %91 to i64
  %93 = getelementptr inbounds i16, ptr %90, i64 %92
  store i16 %89, ptr %93, align 2, !tbaa !62
  br label %94

94:                                               ; preds = %88
  %95 = load i32, ptr %7, align 4, !tbaa !53
  %96 = add nsw i32 %95, 1
  store i32 %96, ptr %7, align 4, !tbaa !53
  br label %15, !llvm.loop !77

97:                                               ; preds = %15
  call void @llvm.lifetime.end.p0(i64 4, ptr %13) #3
  call void @llvm.lifetime.end.p0(i64 4, ptr %12) #3
  call void @llvm.lifetime.end.p0(i64 2, ptr %11) #3
  call void @llvm.lifetime.end.p0(i64 2, ptr %10) #3
  call void @llvm.lifetime.end.p0(i64 8, ptr %9) #3
  call void @llvm.lifetime.end.p0(i64 2, ptr %8) #3
  call void @llvm.lifetime.end.p0(i64 4, ptr %7) #3
  ret void
}